target datalayout = "e-m:e-p270:32:32-p271:32:32-p272:64:64-i64:64-i128:128-f80:128-n8:16:32:64-S128"
target triple = "x86_64-pc-linux-gnu"

%"class.std::__shared_count" = type { ptr }
%"class.std::shared_ptr.3" = type { %"class.std::__shared_ptr.4" }
%"class.std::__shared_ptr.4" = type { ptr, %"class.std::__shared_count" }
%"class.rocksdb::PessimisticTransactionDB" = type { %"class.rocksdb::TransactionDB", ptr, %"class.std::shared_ptr.3", %"struct.rocksdb::TransactionDBOptions", %"class.std::shared_ptr.17", %"class.rocksdb::InstrumentedMutex", %"class.std::mutex", %"class.std::unordered_map", %"class.std::mutex", %"class.std::unordered_map.25" }
%"class.rocksdb::TransactionDB" = type { %"class.rocksdb::StackableDB" }
%"class.rocksdb::StackableDB" = type { %"class.rocksdb::DB", ptr, %"class.std::shared_ptr" }
%"class.rocksdb::DB" = type { ptr }
%"class.std::shared_ptr" = type { %"class.std::__shared_ptr" }
%"class.std::__shared_ptr" = type { ptr, %"class.std::__shared_count" }
%"struct.rocksdb::TransactionDBOptions" = type <{ i64, i32, [4 x i8], i64, i64, i64, %"class.std::shared_ptr.6", i32, i8, [3 x i8], %"class.std::shared_ptr.9", i8, [7 x i8], i64, %"class.std::function", i8, [7 x i8], %"class.std::vector.12", i32, [4 x i8], i64, i64, i8, [7 x i8] }>
%"class.std::shared_ptr.6" = type { %"class.std::__shared_ptr.7" }
%"class.std::__shared_ptr.7" = type { ptr, %"class.std::__shared_count" }
%"class.std::shared_ptr.9" = type { %"class.std::__shared_ptr.10" }
%"class.std::__shared_ptr.10" = type { ptr, %"class.std::__shared_count" }
%"class.std::function" = type { %"class.std::_Function_base", ptr }
%"class.std::_Function_base" = type { %"union.std::_Any_data", ptr }
%"union.std::_Any_data" = type { %"union.std::_Nocopy_types" }
%"union.std::_Nocopy_types" = type { { i64, i64 } }
%"class.std::vector.12" = type { %"struct.std::_Vector_base.13" }
%"struct.std::_Vector_base.13" = type { %"struct.std::_Vector_base<std::shared_ptr<rocksdb::SecondaryIndex>, std::allocator<std::shared_ptr<rocksdb::SecondaryIndex>>>::_Vector_impl" }
%"struct.std::_Vector_base<std::shared_ptr<rocksdb::SecondaryIndex>, std::allocator<std::shared_ptr<rocksdb::SecondaryIndex>>>::_Vector_impl" = type { %"struct.std::_Vector_base<std::shared_ptr<rocksdb::SecondaryIndex>, std::allocator<std::shared_ptr<rocksdb::SecondaryIndex>>>::_Vector_impl_data" }
%"struct.std::_Vector_base<std::shared_ptr<rocksdb::SecondaryIndex>, std::allocator<std::shared_ptr<rocksdb::SecondaryIndex>>>::_Vector_impl_data" = type { ptr, ptr, ptr }
%"class.std::shared_ptr.17" = type { %"class.std::__shared_ptr.18" }
%"class.std::__shared_ptr.18" = type { ptr, %"class.std::__shared_count" }
%"class.rocksdb::InstrumentedMutex" = type <{ %"class.rocksdb::port::Mutex", ptr, ptr, i32, [4 x i8] }>
%"class.rocksdb::port::Mutex" = type { %union.pthread_mutex_t }
%union.pthread_mutex_t = type { %struct.__pthread_mutex_s }
%struct.__pthread_mutex_s = type { i32, i32, i32, i32, i32, i16, i16, %struct.__pthread_internal_list }
%struct.__pthread_internal_list = type { ptr, ptr }
%"class.std::unordered_map" = type { %"class.std::_Hashtable" }
%"class.std::_Hashtable" = type { ptr, i64, %"struct.std::__detail::_Hash_node_base", i64, %"struct.std::__detail::_Prime_rehash_policy", ptr }
%"struct.std::__detail::_Hash_node_base" = type { ptr }
%"struct.std::__detail::_Prime_rehash_policy" = type { float, i64 }
%"class.std::mutex" = type { %"class.std::__mutex_base" }
%"class.std::__mutex_base" = type { %union.pthread_mutex_t }
%"class.std::unordered_map.25" = type { %"class.std::_Hashtable.26" }
%"class.std::_Hashtable.26" = type { ptr, i64, %"struct.std::__detail::_Hash_node_base", i64, %"struct.std::__detail::_Prime_rehash_policy", ptr }
%"struct.rocksdb::TransactionOptions" = type <{ i8, i8, i8, [5 x i8], i64, i64, i64, i64, i8, i8, [6 x i8], i64, i8, i8, [6 x i8] }>

; Function Attrs: inlinehint mustprogress nounwind uwtable
define linkonce_odr void @_ZN7rocksdb18TransactionOptionsC2Ev(ptr noundef nonnull align 8 dereferenceable(58) %0) unnamed_addr #1 comdat align 2 {
  %2 = alloca ptr, align 8
  store ptr %0, ptr %2, align 8, !tbaa !316
  %3 = load ptr, ptr %2, align 8
  %4 = getelementptr inbounds nuw %"struct.rocksdb::TransactionOptions", ptr %3, i32 0, i32 0
  store i8 0, ptr %4, align 8, !tbaa !318
  %5 = getelementptr inbounds nuw %"struct.rocksdb::TransactionOptions", ptr %3, i32 0, i32 1
  store i8 0, ptr %5, align 1, !tbaa !319
  %6 = getelementptr inbounds nuw %"struct.rocksdb::TransactionOptions", ptr %3, i32 0, i32 2
  store i8 0, ptr %6, align 2, !tbaa !320
  %7 = getelementptr inbounds nuw %"struct.rocksdb::TransactionOptions", ptr %3, i32 0, i32 4
  store i64 -1, ptr %7, align 8, !tbaa !321
  %8 = getelementptr inbounds nuw %"struct.rocksdb::TransactionOptions", ptr %3, i32 0, i32 5
  store i64 -1, ptr %8, align 8, !tbaa !322
  %9 = getelementptr inbounds nuw %"struct.rocksdb::TransactionOptions", ptr %3, i32 0, i32 6
  store i64 50, ptr %9, align 8, !tbaa !323
  %10 = getelementptr inbounds nuw %"struct.rocksdb::TransactionOptions", ptr %3, i32 0, i32 7
  store i64 0, ptr %10, align 8, !tbaa !324
  %11 = getelementptr inbounds nuw %"struct.rocksdb::TransactionOptions", ptr %3, i32 0, i32 8
  store i8 0, ptr %11, align 8, !tbaa !238
  %12 = getelementptr inbounds nuw %"struct.rocksdb::TransactionOptions", ptr %3, i32 0, i32 9
  store i8 1, ptr %12, align 1, !tbaa !325
  %13 = getelementptr inbounds nuw %"struct.rocksdb::TransactionOptions", ptr %3, i32 0, i32 11
  store i64 -1, ptr %13, align 8, !tbaa !326
  %14 = getelementptr inbounds nuw %"struct.rocksdb::TransactionOptions", ptr %3, i32 0, i32 12
  store i8 0, ptr %14, align 8, !tbaa !327
  %15 = getelementptr inbounds nuw %"struct.rocksdb::TransactionOptions", ptr %3, i32 0, i32 13
  store i8 0, ptr %15, align 1, !tbaa !328
  ret void
}

; Function Attrs: mustprogress uwtable
define noundef ptr @_ZN7rocksdb24PessimisticTransactionDB24BeginInternalTransactionERKNS_12WriteOptionsE(ptr noundef nonnull align 8 dereferenceable(520) %0, ptr noundef nonnull align 8 dereferenceable(25) %1) #5 align 2 {
  %3 = alloca ptr, align 8
  %4 = alloca ptr, align 8
  %5 = alloca %"struct.rocksdb::TransactionOptions", align 8
  %6 = alloca ptr, align 8
  store ptr %0, ptr %3, align 8, !tbaa !52
  store ptr %1, ptr %4, align 8, !tbaa !306
  %7 = load ptr, ptr %3, align 8
  call void @llvm.lifetime.start.p0(i64 64, ptr %5) #4
  call void @_ZN7rocksdb18TransactionOptionsC2Ev(ptr noundef nonnull align 8 dereferenceable(58) %5) #4
  call void @llvm.lifetime.start.p0(i64 8, ptr %6) #4
  %8 = load ptr, ptr %4, align 8, !tbaa !306
  %9 = load ptr, ptr %7, align 8, !tbaa !58
  %10 = getelementptr inbounds ptr, ptr %9, i64 155
  %11 = load ptr, ptr %10, align 8
  %12 = call noundef ptr %11(ptr noundef nonnull align 8 dereferenceable(520) %7, ptr noundef nonnull align 8 dereferenceable(25) %8, ptr noundef nonnull align 8 dereferenceable(58) %5, ptr noundef null)
  store ptr %12, ptr %6, align 8, !tbaa !240
  %13 = load ptr, ptr %6, align 8, !tbaa !240
  %14 = getelementptr inbounds nuw %"class.rocksdb::PessimisticTransactionDB", ptr %7, i32 0, i32 3
  %15 = getelementptr inbounds nuw %"struct.rocksdb::TransactionDBOptions", ptr %14, i32 0, i32 5
  %16 = load i64, ptr %15, align 8, !tbaa !484
  %17 = load ptr, ptr %13, align 8, !tbaa !58
  %18 = getelementptr inbounds ptr, ptr %17, i64 73
  %19 = load ptr, ptr %18, align 8
  call void %19(ptr noundef nonnull align 8 dereferenceable(64) %13, i64 noundef %16)
  %20 = load ptr, ptr %6, align 8, !tbaa !240
  call void @llvm.lifetime.end.p0(i64 8, ptr %6) #4
  call void @llvm.lifetime.end.p0(i64 64, ptr %5) #4
  ret ptr %20
}