; Function Attrs: mustprogress uwtable
define noundef ptr @_ZN7rocksdb24PessimisticTransactionDB24BeginInternalTransactionERKNS_12WriteOptionsE(ptr noundef nonnull align 8 dereferenceable(520) %0, ptr noundef nonnull align 8 dereferenceable(25) %1) local_unnamed_addr #4 align 2 {
  %3 = alloca %"struct.rocksdb::TransactionOptions", align 8
  call void @llvm.lifetime.start.p0(i64 64, ptr nonnull %3) #28
  store i8 0, ptr %3, align 8, !tbaa !276
  %4 = getelementptr inbounds nuw i8, ptr %3, i64 1
  store i8 0, ptr %4, align 1, !tbaa !278
  %5 = getelementptr inbounds nuw i8, ptr %3, i64 2
  store i8 0, ptr %5, align 2, !tbaa !279
  %6 = getelementptr inbounds nuw i8, ptr %3, i64 8
  %7 = getelementptr inbounds nuw i8, ptr %3, i64 24
  call void @llvm.memset.p0.i64(ptr noundef nonnull align 8 dereferenceable(16) %6, i8 -1, i64 16, i1 false)
  store i64 50, ptr %7, align 8, !tbaa !280
  %8 = getelementptr inbounds nuw i8, ptr %3, i64 32
  store i64 0, ptr %8, align 8, !tbaa !281
  %9 = getelementptr inbounds nuw i8, ptr %3, i64 40
  store i8 0, ptr %9, align 8, !tbaa !286
  %10 = getelementptr inbounds nuw i8, ptr %3, i64 41
  store i8 1, ptr %10, align 1, !tbaa !282
  %11 = getelementptr inbounds nuw i8, ptr %3, i64 48
  store i64 -1, ptr %11, align 8, !tbaa !283
  %12 = getelementptr inbounds nuw i8, ptr %3, i64 56
  store i8 0, ptr %12, align 8, !tbaa !284
  %13 = getelementptr inbounds nuw i8, ptr %3, i64 57
  store i8 0, ptr %13, align 1, !tbaa !285
  %14 = load ptr, ptr %0, align 8, !tbaa !26
  %15 = getelementptr inbounds nuw i8, ptr %14, i64 1240
  %16 = load ptr, ptr %15, align 8
  %17 = call noundef ptr %16(ptr noundef nonnull align 8 dereferenceable(520) %0, ptr noundef nonnull align 8 dereferenceable(25) %1, ptr noundef nonnull align 8 dereferenceable(58) %3, ptr noundef null)
  %18 = getelementptr inbounds nuw i8, ptr %0, i64 88
  %19 = load i64, ptr %18, align 8, !tbaa !457
  %20 = load ptr, ptr %17, align 8, !tbaa !26
  %21 = getelementptr inbounds nuw i8, ptr %20, i64 584
  %22 = load ptr, ptr %21, align 8
  call void %22(ptr noundef nonnull align 8 dereferenceable(64) %17, i64 noundef %19)
  call void @llvm.lifetime.end.p0(i64 64, ptr nonnull %3) #28
  ret ptr %17
}